(dp0
S'HIGH_MUT_REGIONS'
p1
(lp2
(S'chrSARS-CoV2'
p3
I0
I5000
F0.0004
tp4
asS'COMMON_VARIANTS'
p5
(lp6
sS'SNP_TRANS_FREQ'
p7
(dp8
(S'A'
p9
S'G'
p10
tp11
F1.0
s(S'C'
p12
S'T'
p13
tp14
F1.0
s(g10
g13
tp15
F1.0
ssS'SNP_FREQ'
p16
F1.0
sS'TRINUC_MUT_PROB'
p17
(dp18
S'ACC'
p19
F0.0026595744680851063
sS'ATG'
p20
F0.0
sS'AAG'
p21
F0.0
sS'AAA'
p22
F0.0
sS'ATC'
p23
F0.0
sS'AAC'
p24
F0.0
sS'ATA'
p25
F0.0
sS'AGG'
p26
F0.0
sS'CCT'
p27
F0.0029069767441860465
sS'CTC'
p28
F0.0
sS'AGC'
p29
F0.0
sS'ACA'
p30
F0.0
sS'AGA'
p31
F0.001652892561983471
sS'CAT'
p32
F0.0
sS'AAT'
p33
F0.0
sS'ATT'
p34
F0.0
sS'CTG'
p35
F0.0
sS'CTA'
p36
F0.0
sS'ACT'
p37
F0.0
sS'CAC'
p38
F0.0
sS'ACG'
p39
F0.0
sS'CAA'
p40
F0.0
sS'AGT'
p41
F0.0
sS'CCA'
p42
F0.0
sS'CCG'
p43
F0.0
sS'CCC'
p44
F0.0
sS'TAT'
p45
F0.0
sS'GGT'
p46
F0.0
sS'TGT'
p47
F0.0
sS'CGA'
p48
F0.0
sS'CAG'
p49
F0.0
sS'CGC'
p50
F0.0
sS'GAT'
p51
F0.0022727272727272726
sS'CGG'
p52
F0.0
sS'CTT'
p53
F0.0
sS'TGC'
p54
F0.0
sS'GGG'
p55
F0.0
sS'TAG'
p56
F0.0
sS'GGA'
p57
F0.0
sS'TAA'
p58
F0.0
sS'GGC'
p59
F0.0
sS'TAC'
p60
F0.0
sS'GAG'
p61
F0.0
sS'TCG'
p62
F0.0
sS'TTA'
p63
F0.0
sS'TTT'
p64
F0.0
sS'GAC'
p65
F0.0
sS'CGT'
p66
F0.0
sS'GAA'
p67
F0.0
sS'TCA'
p68
F0.0
sS'GCA'
p69
F0.0
sS'GTA'
p70
F0.0
sS'GCC'
p71
F0.0
sS'GTC'
p72
F0.0
sS'GCG'
p73
F0.0
sS'GTG'
p74
F0.0
sS'TTC'
p75
F0.0
sS'GTT'
p76
F0.0
sS'GCT'
p77
F0.0
sS'TGA'
p78
F0.0
sS'TTG'
p79
F0.0
sS'TCC'
p80
F0.0
sS'TGG'
p81
F0.0
sS'TCT'
p82
F0.0018450184501845018
ssS'TRINUC_TRANS_PROBS'
p83
(dp84
(S'TTA'
p85
S'TAA'
p86
tp87
F0.0
s(S'TGA'
p88
S'TCA'
p89
tp90
F0.0
s(S'GAA'
p91
S'GCA'
p92
tp93
F0.0
s(S'ACG'
p94
S'AGG'
p95
tp96
F0.0
s(g88
S'TTA'
p97
tp98
F0.0
s(S'AAG'
p99
S'ATG'
p100
tp101
F0.0
s(S'TCA'
p102
S'TGA'
p103
tp104
F0.0
s(S'GAC'
p105
S'GCC'
p106
tp107
F0.0
s(S'CTT'
p108
S'CGT'
p109
tp110
F0.0
s(S'GGC'
p111
S'GTC'
p112
tp113
F0.0
s(g91
S'GTA'
p114
tp115
F0.0
s(S'AGA'
p116
S'ACA'
p117
tp118
F0.0
s(S'GCG'
p119
S'GTG'
p120
tp121
F0.0
s(S'TAA'
p122
S'TCA'
p123
tp124
F0.0
s(S'CCT'
p125
S'CAT'
p126
tp127
F0.0
s(S'GAG'
p128
S'GCG'
p129
tp130
F0.0
s(S'ATT'
p131
S'AGT'
p132
tp133
F0.0
s(S'CGT'
p134
S'CTT'
p135
tp136
F0.0
s(S'CAT'
p137
S'CGT'
p138
tp139
F0.0
s(g119
S'GAG'
p140
tp141
F0.0
s(g91
S'GGA'
p142
tp143
F0.0
s(g111
S'GAC'
p144
tp145
F0.0
s(S'TTG'
p146
S'TCG'
p147
tp148
F0.0
s(S'ATA'
p149
S'AGA'
p150
tp151
F0.0
s(S'TGG'
p152
S'TCG'
p153
tp154
F0.0
s(S'GAT'
p155
S'GCT'
p156
tp157
F0.0
s(S'GGG'
p158
S'GAG'
p159
tp160
F0.0
s(S'AAA'
p161
S'AGA'
p162
tp163
F0.0
s(S'CTA'
p164
S'CGA'
p165
tp166
F0.0
s(S'ACC'
p167
S'AGC'
p168
tp169
F0.0
s(g119
S'GGG'
p170
tp171
F0.0
s(S'AAC'
p172
S'AGC'
p173
tp174
F0.0
s(S'GTA'
p175
S'GCA'
p176
tp177
F0.0
s(S'ACA'
p178
S'AGA'
p179
tp180
F0.0
s(S'GCA'
p181
S'GTA'
p182
tp183
F0.0
s(S'CCG'
p184
S'CGG'
p185
tp186
F0.0
s(S'TAT'
p187
S'TTT'
p188
tp189
F0.0
s(S'AGC'
p190
S'ACC'
p191
tp192
F0.0
s(S'AGA'
p193
S'ATA'
p194
tp195
F1.0
s(S'CCA'
p196
S'CGA'
p197
tp198
F0.0
s(S'TGC'
p199
S'TAC'
p200
tp201
F0.0
s(g108
S'CCT'
p202
tp203
F0.0
s(S'ACT'
p204
S'AGT'
p205
tp206
F0.0
s(S'AGG'
p207
S'ACG'
p208
tp209
F0.0
s(S'CAC'
p210
S'CCC'
p211
tp212
F0.0
s(S'TAC'
p213
S'TCC'
p214
tp215
F0.0
s(g116
S'AAA'
p216
tp217
F0.0
s(S'CTG'
p218
S'CCG'
p219
tp220
F0.0
s(S'CAA'
p221
S'CCA'
p222
tp223
F0.0
s(g190
S'ATC'
p224
tp225
F0.0
s(g221
S'CGA'
p226
tp227
F0.0
s(S'AGT'
p228
S'AAT'
p229
tp230
F0.0
s(S'CAG'
p231
S'CCG'
p232
tp233
F0.0
s(g102
S'TAA'
p234
tp235
F0.0
s(g149
S'ACA'
p236
tp237
F0.0
s(S'TTC'
p238
S'TCC'
p239
tp240
F0.0
s(S'CTC'
p241
S'CCC'
p242
tp243
F0.0
s(g167
S'AAC'
p244
tp245
F0.0
s(g207
S'ATG'
p246
tp247
F0.0
s(S'ATC'
p248
S'AGC'
p249
tp250
F0.0
s(S'GAT'
p251
S'GGT'
p252
tp253
F1.0
s(S'CGA'
p254
S'CCA'
p255
tp256
F0.0
s(g94
S'ATG'
p257
tp258
F0.0
s(g122
S'TGA'
p259
tp260
F0.0
s(g228
S'ACT'
p261
tp262
F0.0
s(S'GTC'
p263
S'GCC'
p264
tp265
F0.0
s(S'CGC'
p266
S'CCC'
p267
tp268
F0.0
s(g164
S'CAA'
p269
tp270
F0.0
s(S'GTT'
p271
S'GCT'
p272
tp273
F0.0
s(g105
S'GGC'
p274
tp275
F0.0
s(g131
S'AAT'
p276
tp277
F0.0
s(S'TCC'
p278
S'TAC'
p279
tp280
F0.0
s(S'ACC'
p281
S'ATC'
p282
tp283
F1.0
s(g271
S'GAT'
p284
tp285
F0.0
s(g271
S'GGT'
p286
tp287
F0.0
s(g161
S'ACA'
p288
tp289
F0.0
s(g187
S'TGT'
p290
tp291
F0.0
s(g172
S'ATC'
p292
tp293
F0.0
s(g178
S'ATA'
p294
tp295
F0.0
s(g128
S'GGG'
p296
tp297
F0.0
s(S'GTG'
p298
S'GCG'
p299
tp300
F0.0
s(g228
S'ATT'
p301
tp302
F0.0
s(g213
S'TGC'
p303
tp304
F0.0
s(S'TTT'
p305
S'TAT'
p306
tp307
F0.0
s(g196
S'CTA'
p308
tp309
F0.0
s(S'ATG'
p310
S'AGG'
p311
tp312
F0.0
s(S'TAG'
p313
S'TCG'
p314
tp315
F0.0
s(g155
S'GTT'
p316
tp317
F0.0
s(S'TGT'
p318
S'TTT'
p319
tp320
F0.0
s(g99
S'ACG'
p321
tp322
F0.0
s(g204
S'ATT'
p323
tp324
F0.0
s(g278
S'TGC'
p325
tp326
F0.0
s(g161
S'ATA'
p327
tp328
F0.0
s(g111
S'GCC'
p329
tp330
F0.0
s(S'GCC'
p331
S'GAC'
p332
tp333
F0.0
s(g248
S'AAC'
p334
tp335
F0.0
s(g137
S'CTT'
p336
tp337
F0.0
s(g164
S'CCA'
p338
tp339
F0.0
s(S'TCT'
p340
S'TGT'
p341
tp342
F0.0
s(S'GGA'
p343
S'GCA'
p344
tp345
F0.0
s(S'TCG'
p346
S'TGG'
p347
tp348
F0.0
s(g175
S'GAA'
p349
tp350
F0.0
s(g231
S'CTG'
p351
tp352
F0.0
s(g310
S'AAG'
p353
tp354
F0.0
s(S'CCT'
p355
S'CTT'
p356
tp357
F1.0
s(g181
S'GGA'
p358
tp359
F0.0
s(S'CCC'
p360
S'CTC'
p361
tp362
F0.0
s(g343
S'GAA'
p363
tp364
F0.0
s(g105
S'GTC'
p365
tp366
F0.0
s(g85
S'TCA'
p367
tp368
F0.0
s(g305
S'TGT'
p369
tp370
F0.0
s(g360
S'CGC'
p371
tp372
F0.0
s(g248
S'ACC'
p373
tp374
F0.0
s(S'GCT'
p375
S'GGT'
p376
tp377
F0.0
s(g313
S'TGG'
p378
tp379
F0.0
s(g221
S'CTA'
p380
tp381
F0.0
s(g218
S'CAG'
p382
tp383
F0.0
s(g210
S'CTC'
p384
tp385
F0.0
s(g128
S'GTG'
p386
tp387
F0.0
s(S'GGT'
p388
S'GCT'
p389
tp390
F0.0
s(g199
S'TCC'
p391
tp392
F0.0
s(g310
S'ACG'
p393
tp394
F0.0
s(g184
S'CAG'
p395
tp396
F0.0
s(g158
S'GTG'
p397
tp398
F0.0
s(g331
S'GTC'
p399
tp400
F0.0
s(g187
S'TCT'
p401
tp402
F0.0
s(g340
S'TAT'
p403
tp404
F0.0
s(g375
S'GTT'
p405
tp406
F0.0
s(S'AAT'
p407
S'AGT'
p408
tp409
F0.0
s(g241
S'CAC'
p410
tp411
F0.0
s(S'CGG'
p412
S'CAG'
p413
tp414
F0.0
s(g254
S'CTA'
p415
tp416
F0.0
s(g298
S'GGG'
p417
tp418
F0.0
s(g149
S'AAA'
p419
tp420
F0.0
s(g199
S'TTC'
p421
tp422
F0.0
s(g137
S'CCT'
p423
tp424
F0.0
s(g266
S'CTC'
p425
tp426
F0.0
s(g134
S'CAT'
p427
tp428
F0.0
s(g88
S'TAA'
p429
tp430
F0.0
s(g346
S'TAG'
p431
tp432
F0.0
s(g263
S'GGC'
p433
tp434
F0.0
s(g122
S'TTA'
p435
tp436
F0.0
s(g99
S'AGG'
p437
tp438
F0.0
s(g152
S'TTG'
p439
tp440
F0.0
s(g318
S'TAT'
p441
tp442
F0.0
s(g305
S'TCT'
p443
tp444
F0.0
s(S'TCT'
p445
S'TTT'
p446
tp447
F1.0
s(g375
S'GAT'
p448
tp449
F0.0
s(g196
S'CAA'
p450
tp451
F0.0
s(g210
S'CGC'
p452
tp453
F0.0
s(g346
S'TTG'
p454
tp455
F0.0
s(g131
S'ACT'
p456
tp457
F0.0
s(g108
S'CAT'
p458
tp459
F0.0
s(g204
S'AAT'
p460
tp461
F0.0
s(g134
S'CCT'
p462
tp463
F0.0
s(g190
S'AAC'
p464
tp465
F0.0
s(g146
S'TGG'
p466
tp467
F0.0
s(g125
S'CGT'
p468
tp469
F0.0
s(g263
S'GAC'
p470
tp471
F0.0
s(g231
S'CGG'
p472
tp473
F0.0
s(g278
S'TTC'
p474
tp475
F0.0
s(g407
S'ACT'
p476
tp477
F0.0
s(g85
S'TGA'
p478
tp479
F0.0
s(g360
S'CAC'
p480
tp481
F0.0
s(g175
S'GGA'
p482
tp483
F0.0
s(g152
S'TAG'
p484
tp485
F0.0
s(g313
S'TTG'
p486
tp487
F0.0
s(g207
S'AAG'
p488
tp489
F0.0
s(g238
S'TGC'
p490
tp491
F0.0
s(g412
S'CCG'
p492
tp493
F0.0
s(g298
S'GAG'
p494
tp495
F0.0
s(g172
S'ACC'
p496
tp497
F0.0
s(g218
S'CGG'
p498
tp499
F0.0
s(g102
S'TTA'
p500
tp501
F0.0
s(g343
S'GTA'
p502
tp503
F0.0
s(g94
S'AAG'
p504
tp505
F0.0
s(g388
S'GAT'
p506
tp507
F0.0
s(g213
S'TTC'
p508
tp509
F0.0
s(g146
S'TAG'
p510
tp511
F0.0
s(g407
S'ATT'
p512
tp513
F0.0
s(g331
S'GGC'
p514
tp515
F0.0
s(g241
S'CGC'
p516
tp517
F0.0
s(g412
S'CTG'
p518
tp519
F0.0
s(g318
S'TCT'
p520
tp521
F0.0
s(g178
S'AAA'
p522
tp523
F0.0
s(g266
S'CAC'
p524
tp525
F0.0
s(g388
S'GTT'
p526
tp527
F0.0
s(g238
S'TAC'
p528
tp529
F0.0
s(g158
S'GCG'
p530
tp531
F0.0
s(g181
S'GAA'
p532
tp533
F0.0
s(g184
S'CTG'
p534
tp535
F0.0
s(g254
S'CAA'
p536
tp537
F0.0
ssS'AVG_MUT_RATE'
p538
F0.0001672073036150219
sS'INDEL_FREQ'
p539
(dp540
s.