(lp1
(lp2
I19
aI20
aI21
aI56
aI58
aI59
aI60
aI61
aI62
aI63
aI64
aI65
aI66
aI67
aI68
aI69
aI70
aI71
aI72
aI73
aI74
aI75
aI76
aI77
aI78
aI79
aI80
aI81
aI82
aI83
aI84
aI85
aI86
aI87
aI88
aI89
aI90
aI91
aI92
aI93
aI94
aI95
aI96
aI97
aI98
aI99
aI100
aI101
aI102
aI103
aI104
aI105
aI106
aI107
aI108
aI109
aI110
aI111
aI112
aI113
aI114
aI115
aI116
aI117
aI118
aI119
aI120
aI121
aI122
aI123
aI124
aI125
aI126
aI127
aI128
aI129
aI130
aI131
aI132
aI133
aI134
aI135
aI136
aI137
aI138
aI139
aI140
aI141
aI142
aI143
aI144
aI145
aI146
aI147
aI148
aI149
aI150
aI151
aI152
aI153
aI154
aI155
aI156
aI157
aI158
aI159
aI160
aI161
aI162
aI163
aI164
aI165
aI166
aI167
aI168
aI169
aI170
aI171
aI172
aI173
aI174
aI175
aI176
aI177
aI178
aI179
aI180
aI181
aI182
aI183
aI184
aI185
aI186
aI187
aI188
aI189
aI190
aI191
aI192
aI193
aI194
aI195
aI196
aI197
aI198
aI199
aI200
aI201
aI202
aI203
aI204
aI205
aI206
aI207
aI208
aI209
aI210
aI211
aI212
aI213
aI214
aI215
aI216
aI217
aI218
aI219
aI220
aI221
aI222
aI223
aI224
aI225
aI226
aI227
aI228
aI229
aI230
aI231
aI232
aI233
aI234
aI235
aI236
aI237
aI238
aI239
aI240
aI241
aI242
aI243
aI244
aI245
aI246
aI247
aI248
aI249
aI250
aI251
aI252
aI253
aI254
aI255
aI256
aI257
aI258
aI259
aI260
aI261
aI262
aI263
aI264
aI265
aI266
aI267
aI268
aI269
aI270
aI271
aI272
aI273
aI274
aI275
aI276
aI277
aI278
aI279
aI280
aI281
aI282
aI283
aI284
aI285
aI286
aI287
aI288
aI289
aI290
aI291
aI292
aI293
aI294
aI295
aI296
aI297
aI298
aI299
aI300
aI301
aI302
aI303
aI304
aI305
aI306
aI307
aI308
aI309
aI310
aI311
aI312
aI313
aI314
aI315
aI316
aI317
aI318
aI319
aI320
aI321
aI322
aI323
aI324
aI325
aI326
aI327
aI328
aI329
aI330
aI331
aI332
aI333
aI334
aI335
aI336
aI337
aI338
aI339
aI340
aI341
aI342
aI343
aI344
aI345
aI346
aI347
aI348
aI349
aI350
aI351
aI352
aI353
aI354
aI355
aI356
aI357
aI358
aI359
aI360
aI361
aI362
aI363
aI364
aI365
aI366
aI367
aI368
aI369
aI370
aI371
aI372
aI373
aI374
aI375
aI376
aI377
aI378
aI379
aI380
aI381
aI382
aI383
aI384
aI385
aI386
aI387
aI388
aI389
aI390
aI391
aI392
aI393
aI394
aI395
aI396
aI397
aI398
aI399
aI400
aI401
aI402
aI403
aI404
aI405
aI406
aI407
aI408
aI409
aI410
aI411
aI412
aI413
aI414
aI415
aI416
aI417
aI418
aI419
aI420
aI421
aI422
aI423
aI424
aI425
aI426
aI427
aI428
aI429
aI430
aI431
aI432
aI433
aI434
aI435
aI436
aI437
aI438
aI439
aI440
aI441
aI442
aI443
aI444
aI445
aI446
aI447
aI448
aI449
aI450
aI451
aI452
aI453
aI454
aI455
aI456
aI457
aI458
aI459
aI460
aI461
aI462
aI463
aI464
aI465
aI466
aI467
aI468
aI469
aI470
aI471
aI472
aI473
aI474
aI475
aI476
aI477
aI478
aI479
aI480
aI481
aI482
aI483
aI484
aI485
aI486
aI487
aI488
aI489
aI490
aI491
aI492
aI493
aI494
aI495
aI496
aI497
aI498
aI499
aI500
aI501
aI502
aI503
aI504
aI505
aI506
aI507
aI508
aI509
aI510
aI511
aI512
aI513
aI514
aI515
aI516
aI517
aI518
aI519
aI520
aI521
aI522
aI523
aI524
aI525
aI526
aI527
aI528
aI529
aI530
aI531
aI532
aI533
aI534
aI535
aI536
aI537
aI538
aI539
aI540
aI541
aI542
aI543
aI544
aI545
aI546
aI547
aI548
aI549
aI550
aI551
aI552
aI553
aI554
aI555
aI556
aI557
aI558
aI559
aI560
aI561
aI562
aI563
aI564
aI565
aI566
aI567
aI568
aI569
aI570
aI571
aI572
aI573
aI574
aI575
aI576
aI577
aI578
aI579
aI580
aI581
aI582
aI583
aI584
aI585
aI586
aI587
aI588
aI589
aI590
aI591
aI592
aI593
aI594
aI595
aI596
aI597
aI598
aI599
aI600
aI601
aI602
aI603
aI604
aI605
aI606
aI607
aI608
aI609
aI610
aI611
aI612
aI613
aI614
aI615
aI616
aI617
aI618
aI619
aI620
aI621
aI622
aI623
aI624
aI625
aI626
aI627
aI628
aI629
aI630
aI631
aI632
aI633
aI634
aI635
aI636
aI637
aI638
aI639
aI640
aI641
aI642
aI643
aI644
aI645
aI646
aI647
aI648
aI649
aI650
aI651
aI652
aI653
aI654
aI655
aI656
aI657
aI658
aI659
aI660
aI661
aI662
aI663
aI664
aI665
aI666
aI667
aI668
aI669
aI670
aI671
aI672
aI673
aI674
aI675
aI676
aI677
aI678
aI679
aI680
aI681
aI682
aI683
aI684
aI685
aI686
aI687
aI688
aI689
aI690
aI691
aI692
aI693
aI694
aI695
aI696
aI697
aI698
aI699
aI700
aI701
aI702
aI703
aI704
aI705
aI706
aI707
aI708
aI709
aI710
aI711
aI712
aI713
aI714
aI715
aI716
aI717
aI718
aI719
aI720
aI721
aI722
aI723
aI724
aI725
aI726
aI727
aI728
aI729
aI730
aI731
aI732
aI733
aI734
aI735
aI736
aI737
aI738
aI739
aI740
aI741
aI742
aI743
aI744
aI745
aI746
aI747
aI748
aI749
aI750
aI751
aI752
aI753
aI754
aI755
aI756
aI757
aI758
aI759
aI760
aI761
aI762
aI763
aI764
aI765
aI766
aI767
aI768
aI769
aI770
aI771
aI772
aI773
aI774
aI775
aI776
aI777
aI778
aI779
aI780
aI781
aI782
aI784
aI785
aI786
aI787
aI788
aI789
aI790
aI791
aI792
aI796
aI799
aI802
aI804
aI806
aI807
aI812
aa(lp3
F0.00012329953741775242
aF0.00010658095607297243
aF0.00083070451056875571
aF0.00010867077874106992
aF0.00014733249810087366
aF0.00010971569007511867
aF0.00016196125677755613
aF0.00012643427141989866
aF0.00014001811876253241
aF0.00017241037011804365
aF0.00015569178877326365
aF0.00016718581344779987
aF0.00018390439479257987
aF0.00017241037011804365
aF0.00021943138015023735
aF0.00017867983812233613
aF0.0002121170008118961
aF0.00019017386279687238
aF0.00019226368546496986
aF0.00029884464153794228
aF0.0002162966461480911
aF0.00027481168085482106
aF0.00027063203551862605
aF0.00027272185818672358
aF0.00027376676952077229
aF0.00024241942949930983
aF0.00032914707022535603
aF0.00034795547423823353
aF0.00030197937554008857
aF0.00035213511957442849
aF0.00036885370091920851
aF0.00050887181968174093
aF0.00041378488828330471
aF0.00046289572098359591
aF0.0003939315729363785
aF0.00041900944495354848
aF0.00048797359300076589
aF0.00049319814967100967
aF0.00061022821908446963
aF0.00054544371637344716
aF0.00046080589831549843
aF0.0005820156130651534
aF0.00054021915970320334
aF0.00061336295308661581
aF0.00051723111035413094
aF0.00059977910574398208
aF0.00054544371637344716
aF0.00060918330775042086
aF0.00075547089451724571
aF0.00070844988448505203
aF0.00065515940644856577
aF0.00070322532781480832
aF0.00073457266783627073
aF0.00077636912119822068
aF0.00081712066322612198
aF0.00075233616051509952
aF0.00089548901327977817
aF0.00079517752521109824
aF0.00092788126463528935
aF0.00080667154988563444
aF0.00088086025460309568
aF0.00087772552060094938
aF0.00090698303795431437
aF0.00086623149592641318
aF0.00097176754066533684
aF0.00096549807266104435
aF0.0011358186201109906
aF0.00097699209733558066
aF0.0011473126447855268
aF0.0010156538166953843
aF0.0012309055515094267
aF0.0011044712800895281
aF0.0010720790287340168
aF0.0010637197380616269
aF0.0010459562453827981
aF0.0012841960295459128
aF0.0011776150734729405
aF0.0012267259061732316
aF0.0012350851968456217
aF0.0012058276794922568
aF0.0014074955669636654
aF0.001533929838383564
aF0.0015109417890344914
aF0.0016770826911482427
aF0.0014973579416918577
aF0.0015328849270495153
aF0.0015903550504221965
aF0.001425259059642494
aF0.0015851304937519527
aF0.0016363311491203415
aF0.0016290167697820001
aF0.0020919124907655962
aF0.0017523163071997525
aF0.0018557625292705787
aF0.0019372656133263811
aF0.0016478251737948777
aF0.0020375771013950612
aF0.00182963974591936
aF0.0019383105246604298
aF0.00205534059407389
aF0.0019299512339880399
aF0.0022047629148428611
aF0.0021399784121318385
aF0.0023604547036161247
aF0.0019863764460266724
aF0.0020459363920674509
aF0.0023855325756332946
aF0.0023541852356118321
aF0.002291490555568907
aF0.0023531403242777835
aF0.0026258621824645071
aF0.0031410034701505403
aF0.002617502891792117
aF0.0028996289519852793
aF0.002350005590275637
aF0.002796182729914453
aF0.0026854221285052856
aF0.0027199042025288942
aF0.0028087216659230382
aF0.0025307752510660706
aF0.0028661917892957192
aF0.0026279520051326047
aF0.0025631675024215821
aF0.0025986944877792397
aF0.0027282634932012844
aF0.0029863565927113257
aF0.0028578324986233295
aF0.0026530298771497746
aF0.0027940929072463555
aF0.0030103895533944466
aF0.003388647456320094
aF0.0034628361610375552
aF0.0034607463383694577
aF0.0030030751740561055
aF0.0030605452974287865
aF0.0033322222442814615
aF0.0030615902087628355
aF0.0033290875102793154
aF0.0027825988825718193
aF0.0032747521209087801
aF0.0033813330769817528
aF0.0031472729381548329
aF0.004308169430282993
aF0.0031786202781762954
aF0.0042005435628759726
aF0.0038693066699825186
aF0.0032820665002471217
aF0.0037940730539310088
aF0.0031671262535017592
aF0.0036530100238344274
aF0.0038243754826184223
aF0.0035422494224252601
aF0.003983202005393832
aF0.0038902048966634934
aF0.0033740186976434113
aF0.0033970067469924841
aF0.0034492523136949215
aF0.003596584811795795
aF0.0033740186976434113
aF0.0032559437168959027
aF0.0030699494994352256
aF0.0040354475720962698
aF0.0036645040485089636
aF0.0036112135704724777
aF0.0034931385897249687
aF0.0032768419435768776
aF0.0033729737863093627
aF0.0036613693145068175
aF0.0037157047038773525
aF0.00377630956125218
aF0.0037909383199288623
aF0.0032517640715597077
aF0.0033447611802900467
aF0.0037930281425969598
aF0.0033311773329474125
aF0.0037104801472071089
aF0.0032151921748680016
aF0.0033614797616348265
aF0.0040970973408051463
aF0.0036874920978580365
aF0.0041775555135268993
aF0.0037846688519245701
aF0.00356732729444243
aF0.0036739082505154027
aF0.00345029722502897
aF0.0038912498079975424
aF0.0031922041255189292
aF0.0037961628765991063
aF0.0038421389752972511
aF0.00345029722502897
aF0.0036958513885304261
aF0.0032360904015489764
aF0.0036279321518172575
aF0.0036185279498108188
aF0.0033113240176004866
aF0.0037648155365776438
aF0.0033677492296391191
aF0.0031650364308336617
aF0.0036477854671641838
aF0.0038818456059911037
aF0.0038452737092993976
aF0.0036707735165132562
aF0.0028902247499788406
aF0.0037355580192242788
aF0.003330132421613364
aF0.0036498752898322813
aF0.0036676387825111101
aF0.0030197937554008853
aF0.0033740186976434113
aF0.0028097665772570867
aF0.0035244859297464313
aF0.003780489206588375
aF0.0032507191602256591
aF0.0033102791062664377
aF0.0029602338093601068
aF0.0032110125295318065
aF0.0034962733237271153
aF0.0035850907871212588
aF0.0035014978803973589
aF0.0030856231694459568
aF0.0031462280268207839
aF0.0029529194300217656
aF0.0033834228996498504
aF0.0030835333467778593
aF0.0029978506173858619
aF0.0032340005788808789
aF0.0031326441794781502
aF0.0031869795688486855
aF0.0034147702396713129
aF0.0034074558603329713
aF0.0027397575178758206
aF0.0034576116043673116
aF0.0028902247499788406
aF0.0029988955287199104
aF0.003121150154803614
aF0.0029393355826791319
aF0.0032486293375575616
aF0.0029445601393493755
aF0.0027982725525825505
aF0.003121150154803614
aF0.0027993174639165995
aF0.0031357789134802967
aF0.0027930479959123069
aF0.0027940929072463555
aF0.0029518745186877166
aF0.0027940929072463555
aF0.002766925212561088
aF0.0025506285664129969
aF0.0029184373559981566
aF0.0029779973020389356
aF0.0027366227838736745
aF0.0028494732079509394
aF0.0026906466851755293
aF0.0026906466851755293
aF0.0028954493066490842
aF0.0025224159603936809
aF0.0024001613343099773
aF0.002408520624982367
aF0.0025056973790489006
aF0.0025736166157620693
aF0.0024200146496569032
aF0.0025056973790489006
aF0.002234020432196226
aF0.0021984934468385685
aF0.0024544967236805122
aF0.0023876223983013921
aF0.0026039190444494833
aF0.0023897122209694897
aF0.0025642124137556306
aF0.0023709038169566123
aF0.0024210595609909522
aF0.0026258621824645071
aF0.0024733051276933896
aF0.002588245374438752
aF0.0020825082887591575
aF0.0023071642255796383
aF0.0023834427529651971
aF0.0022402899002005186
aF0.0025861555517706545
aF0.002467035659689097
aF0.002380308018963051
aF0.0024492721670102682
aF0.002379263107629002
aF0.0023614996149501732
aF0.0021619215501468623
aF0.0022831312648965174
aF0.0024659907483550484
aF0.0024252392063271472
aF0.0022078976488450071
aF0.0020772837320889134
aF0.0023667241716204173
aF0.0023332870089308572
aF0.002201628180840715
aF0.0020668346187484262
aF0.0022308856981940795
aF0.0022705923288879322
aF0.0022549186588772009
aF0.0021389335007977899
aF0.002051160948737695
aF0.0018933793372963338
aF0.0021002717814379863
aF0.0021681910181511549
aF0.0020229483427183785
aF0.0019163673866454062
aF0.0020971370474358398
aF0.0021671461068171059
aF0.0019790620666883313
aF0.0018860649579579925
aF0.0020992268701039373
aF0.0019978704707012086
aF0.0021337089441275459
aF0.0017732145338807276
aF0.0018797954899537001
aF0.0019195021206475525
aF0.0017533612185338012
aF0.002112810717446571
aF0.0018108313419064825
aF0.0016655886664737063
aF0.0020177237860481349
aF0.0017857534698893125
aF0.0019153224753113574
aF0.0018902446032941875
aF0.0016885767158227789
aF0.00177112471121263
aF0.0016854419818206326
aF0.0018891996919601388
aF0.0020741489980867674
aF0.001725148612514485
aF0.0018568074406046275
aF0.001783663647221215
aF0.0015213909023749791
aF0.0019278614113199424
aF0.0016969360064951688
aF0.00182963974591936
aF0.0021023616041060834
aF0.0016363311491203415
aF0.0015694568237412214
aF0.0018379990365917499
aF0.0016269269471139026
aF0.0018191906325788726
aF0.0016154329224393664
aF0.0015840855824179039
aF0.0017606755978721426
aF0.0014848190056832727
aF0.0017596306865380938
aF0.0014733249810087365
aF0.0015778161144136115
aF0.0015913999617562452
aF0.0014409327296532252
aF0.0015610975330688315
aF0.0016300616811160489
aF0.0015391543950538076
aF0.0015234807250430764
aF0.0016102083657691226
aF0.0014033159216274703
aF0.0014492920203256154
aF0.0014681004243384927
aF0.0013740584042741053
aF0.0014513818429937127
aF0.0014388429069851277
aF0.0015307951043814177
aF0.0015266154590452227
aF0.001429438704978689
aF0.0014064506556296166
aF0.001458696222332054
aF0.0013583847342633741
aF0.0014346632616489329
aF0.001592444873090294
aF0.0012497139555223042
aF0.001396001542289129
aF0.0012392648421818166
aF0.0012058276794922568
aF0.0013500254435909842
aF0.0012026929454901105
aF0.0013865973402826903
aF0.0013259924829078628
aF0.0013886871629507878
aF0.0013918218969529341
aF0.0010762586740702118
aF0.0014064506556296166
aF0.0012664325368670841
aF0.0011567168467919654
aF0.0013437559755866916
aF0.0012350851968456217
aF0.001412720123633909
aF0.0014283937936446403
aF0.0012100073248284516
aF0.0013792829609443492
aF0.0012695672708692303
aF0.001133728797442893
aF0.0010887976100787968
aF0.0012162767928327442
aF0.0013949566309550802
aF0.0012821062068778153
aF0.0012141869701646467
aF0.0011326838861088443
aF0.0012601630688627917
aF0.0011232796841024054
aF0.0012988247882225953
aF0.0011023814574214305
aF0.0010490909793849444
aF0.0011399982654471854
aF0.0011577617581260142
aF0.0011598515807941117
aF0.0010271478413699205
aF0.0011797048961410378
aF0.00094773457998221556
aF0.00097385736333343437
aF0.0010219232846996769
aF0.0011911989208155743
aF0.0010501358907189931
aF0.0011441779107833805
aF0.0010501358907189931
aF0.0010919323440809431
aF0.0010396867773785055
aF0.0011671659601324529
aF0.0009237016192990944
aF0.00098117174267177551
aF0.0010752137627361631
aF0.0010093843486910917
aF0.00094982440265031309
aF0.00095713878198865434
aF0.0010114741713591893
aF0.0010887976100787968
aF0.0010762586740702118
aF0.0011776150734729405
aF0.0010553604473892367
aF0.00094459984598006938
aF0.0009989352353506043
aF0.00092579144196719182
aF0.0010229681960337255
aF0.0010595400927254318
aF0.00089966865861597313
aF0.00099057594467821439
aF0.00088190516593714444
aF0.00087354587526475443
aF0.0010396867773785055
aF0.0010668544720637729
aF0.00088190516593714444
aF0.00080458172721753691
aF0.00080980628388778073
aF0.00095713878198865434
aF0.00095086931398436186
aF0.00087877043193499815
aF0.00084428835791138944
aF0.0008975788359478756
aF0.00085891711658807194
aF0.00094042020064387432
aF0.00077218947586202573
aF0.000758605628519392
aF0.00082965959923470695
aF0.00080667154988563444
aF0.00080353681588348825
aF0.00081607575189207322
aF0.0007700996531939282
aF0.00088712972260738816
aF0.00073143793383412454
aF0.00084428835791138944
aF0.00071994390915958823
aF0.00074293195850866074
aF0.00081294101788992692
aF0.00066978816512524826
aF0.00077427929853012326
aF0.00068650674647002829
aF0.00075651580585129447
aF0.00072412355449578329
aF0.0006603839631188096
aF0.00078159367786846451
aF0.00065202467244641958
aF0.00074815651517890446
aF0.00071680917515744205
aF0.00073770740183841702
aF0.00072307864316173453
aF0.0007094947958191008
aF0.00076383018518963572
aF0.00065829414045071206
aF0.00072307864316173453
aF0.00081712066322612198
aF0.00072934811116602701
aF0.0006572492291166633
aF0.00067292289912739456
aF0.00068755165780407706
aF0.00082130030856231693
aF0.00066769834245715084
aF0.00073457266783627073
aF0.00068964148047217459
aF0.00068964148047217459
aF0.00072725828849792948
aF0.00076800983052583078
aF0.0005935096377396896
aF0.00053708442570105715
aF0.00064993484977832205
aF0.00075442598318319694
aF0.00075233616051509952
aF0.00073248284516817331
aF0.00053185986903081343
aF0.00059246472640564084
aF0.00055380300704583718
aF0.00069068639180622324
aF0.00064680011577617587
aF0.00054544371637344716
aF0.00056320720905227585
aF0.00059141981507159207
aF0.00057052158839061709
aF0.00059141981507159207
aF0.00054021915970320334
aF0.00054753353904154459
aF0.00061545277575471334
aF0.00056425212038632461
aF0.00056529703172037338
aF0.00061754259842281087
aF0.00059873419440993332
aF0.00054021915970320334
aF0.00050051252900935091
aF0.00046812027765383968
aF0.0005067819970136434
aF0.00051200655368388711
aF0.00055066827304369088
aF0.00051723111035413094
aF0.00056216229771822708
aF0.00056007247505012966
aF0.00059455454907373837
aF0.00053603951436700839
aF0.00050364726301149721
aF0.00051723111035413094
aF0.00053185986903081343
aF0.0005182760216881796
aF0.00063217135709949337
aF0.00053708442570105715
aF0.00052350057835842342
aF0.00046812027765383968
aF0.00056738685438847091
aF0.00048901850433481471
aF0.00048588377033266842
aF0.00054857845037559335
aF0.00049006341566886337
aF0.0005412640710372521
aF0.00055275809571178841
aF0.00049633288367315596
aF0.00046707536631979092
aF0.00041378488828330471
aF0.00043886276030047469
aF0.00042527891295784096
aF0.00042632382429188973
aF0.00047752447966027841
aF0.00040020104094067098
aF0.00038766210493208601
aF0.00042527891295784096
aF0.00038557228226398848
aF0.00038243754826184224
aF0.00041482979961735347
aF0.00044931187364096218
aF0.0005067819970136434
aF0.00044408731697071846
aF0.00044408731697071846
aF0.00040647050894496346
aF0.00043468311496427969
aF0.0003981112182725735
aF0.00042109926762164596
aF0.00042632382429188973
aF0.00043572802629832845
aF0.00041691962228545095
aF0.00040229086360876845
aF0.00048588377033266842
aF0.00044199749430262093
aF0.00039706630693852474
aF0.00043154838096213344
aF0.00032601233622320979
aF0.00036885370091920851
aF0.00037616808025754976
aF0.00040333577494281722
aF0.00039184175026828097
aF0.00041900944495354848
aF0.000345865651570136
aF0.00035422494224252602
aF0.00041587471095140224
aF0.00040751542027901223
aF0.00045349151897715719
aF0.00038661719359803725
aF0.00030720393221033229
aF0.00032914707022535603
aF0.00035944949891276973
aF0.00034691056290418477
aF0.000341686006233941
aF0.00034064109489989229
aF0.00043259329229618221
aF0.00028108114885911354
aF0.00035631476491062349
aF0.00035213511957442849
aF0.00030093446420603981
aF0.00036780878958515975
aF0.0003113835775465273
aF0.00032392251355511226
aF0.00030720393221033229
aF0.00028630570552935731
aF0.000341686006233941
aF0.00031451831154867354
aF0.00028735061686340608
aF0.00028421588286125978
aF0.00033750636089774605
aF0.00031033866621247853
aF0.00032183269088701478
aF0.00028630570552935731
aF0.00027481168085482106
aF0.00028630570552935731
aF0.00030720393221033229
aF0.00032287760222106355
aF0.0002967548188698448
aF0.00030197937554008857
aF0.00029466499620174732
aF0.00029884464153794228
aF0.0002967548188698448
aF0.00030720393221033229
aF0.00036153932158086726
aF0.00030406919820818605
aF0.00030302428687413728
aF0.00030824884354438105
aF0.00026958712418457734
aF0.00029362008486769856
aF0.00030615902087628352
aF0.00036467405558301351
aF0.00035004529690633101
aF0.00024868889750360231
aF0.00028944043953150355
aF0.0002476439861695536
aF0.0002330152274928711
aF0.00026122783351218733
aF0.00022256611415238359
aF0.00026122783351218733
aF0.00027063203551862605
aF0.00023510505016096858
aF0.00025809309951004109
aF0.00022779067082262736
aF0.00025600327684194356
aF0.00027690150352291859
aF0.00019957806480331111
aF0.00023197031615882234
aF0.00027167694685267482
aF0.00020584753280760362
aF0.00026018292217813856
aF0.00020166788747140861
aF0.00024032960683121235
aF0.00021107208947784736
aF0.0002330152274928711
aF0.0002121170008118961
aF0.00022152120281833485
aF0.00017659001545423863
aF0.00025809309951004109
aF0.0002100271781437986
aF0.00023197031615882234
aF0.00027481168085482106
aF0.00020793735547570112
aF0.00021943138015023735
aF0.00017450019278614112
aF0.00022465593682048109
aF0.0002309254048247736
aF0.00022152120281833485
aF0.00023928469549716359
aF0.00019017386279687238
aF0.00018285948345853114
aF0.00021525173481404237
aF0.0002142068234799936
aF0.00020271279880545737
aF0.00017136545878399488
aF0.00016718581344779987
aF0.00018285948345853114
aF0.00020062297613735987
aF0.00018808404012877488
aF0.00021838646881618861
aF0.00018703912879472611
aF0.0001974882421352136
aF0.00017032054744994614
aF0.00019330859679901862
aF0.00020480262147355485
aF0.0001462875867668249
aF0.0001462875867668249
aF0.0001462875867668249
aF0.00015360196610516614
aF0.00018181457212448237
aF0.00018285948345853114
aF0.00016614090211375114
aF0.00018181457212448237
aF0.00017554510412018989
aF0.00021316191214594486
aF0.00018181457212448237
aF0.00018181457212448237
aF0.00015464687743921488
aF0.00015882652277540989
aF0.00016405107944565363
aF0.00013270373942419117
aF0.00016718581344779987
aF0.00017241037011804365
aF0.00019435350813306736
aF0.00015464687743921488
aF0.00017032054744994614
aF0.00016823072478184864
aF0.00014210794143062989
aF0.00014001811876253241
aF0.00012538936008584992
aF0.00018076966079043363
aF0.00017241037011804365
aF0.0001295690054220449
aF0.00012538936008584992
aF0.00015569178877326365
aF0.0001295690054220449
aF0.0001316588280901424
aF0.00015151214343706864
aF0.00016091634544350739
aF0.0001650959907797024
aF0.0001483774094349224
aF0.00015882652277540989
aF0.00014315285276467866
aF0.00011076060140916742
aF0.00012225462608370368
aF0.00014001811876253241
aF0.00011076060140916742
aF0.00011598515807941117
aF0.00013374865075823991
aF0.0001295690054220449
aF0.00013897320742848365
aF0.00016196125677755613
aF0.00014524267543277616
aF0.00012747918275394742
aF0.00013792829609443491
aF0.00011598515807941117
aF0.00013688338476038615
aF0.00012747918275394742
aF0.00012434444875180115
aF0.00010762586740702118
aF0.00012120971474965491
aF0.00013061391675609366
aF0.00012120971474965491
aF0.00010971569007511867
aF0.00011598515807941117
aF0.00010553604473892368
aF0.00012538936008584992
aF0.00010658095607297243
aF0.00010658095607297243
aF0.00010658095607297243
aF0.00011494024674536242
aF0.00011180551274321618
aF0.00010762586740702118
aF0.00010658095607297243
aF0.00011180551274321618
aF0.00012225462608370368
aa.